target datalayout = "e-m:e-p270:32:32-p271:32:32-p272:64:64-i64:64-i128:128-f80:128-n8:16:32:64-S128"
target triple = "x86_64-pc-linux-gnu"

%struct.UConverter = type { ptr, ptr, ptr, ptr, ptr, ptr, ptr, i32, i8, i8, i8, i8, i8, [7 x i8], i32, i32, i32, i32, i8, i8, i8, i8, i8, i8, i8, i8, [8 x i8], [32 x i8], [2 x i16], [2 x i16], [32 x i16], i32, [19 x i16], [31 x i8], i8, i8, i8, i32 }
%struct.SCSUData = type { [8 x i32], [8 x i32], i8, i8, i8, i8, i8, [3 x i8], i8, i8, i8, i8, [8 x i8] }

@.str = private unnamed_addr constant [15 x i8] c"SCSU,locale=ja\00", align 1
@.str.1 = private unnamed_addr constant [5 x i8] c"SCSU\00", align 1

; Function Attrs: mustprogress nounwind uwtable
define internal noundef ptr @_ZL12_SCSUGetNamePK10UConverter(ptr noundef %0) #1 {
  %2 = alloca ptr, align 8
  %3 = alloca ptr, align 8
  %4 = alloca ptr, align 8
  %5 = alloca i32, align 4
  store ptr %0, ptr %3, align 8, !tbaa !3
  call void @llvm.lifetime.start.p0(i64 8, ptr %4) #7
  %6 = load ptr, ptr %3, align 8, !tbaa !3
  %7 = getelementptr inbounds nuw %struct.UConverter, ptr %6, i32 0, i32 2
  %8 = load ptr, ptr %7, align 8, !tbaa !16
  store ptr %8, ptr %4, align 8, !tbaa !31
  %9 = load ptr, ptr %4, align 8, !tbaa !31
  %10 = getelementptr inbounds nuw %struct.SCSUData, ptr %9, i32 0, i32 10
  %11 = load i8, ptr %10, align 2, !tbaa !21
  %12 = zext i8 %11 to i32
  switch i32 %12, label %14 [
    i32 1, label %13
  ]

13:                                               ; preds = %1
  store ptr @.str, ptr %2, align 8
  store i32 1, ptr %5, align 4
  br label %15

14:                                               ; preds = %1
  store ptr @.str.1, ptr %2, align 8
  store i32 1, ptr %5, align 4
  br label %15

15:                                               ; preds = %14, %13
  call void @llvm.lifetime.end.p0(i64 8, ptr %4) #7
  %16 = load ptr, ptr %2, align 8
  ret ptr %16
}