; Function Attrs: mustprogress nofree norecurse nosync nounwind willreturn memory(read, inaccessiblemem: none) uwtable
define internal noundef nonnull ptr @_ZL12_SCSUGetNamePK10UConverter(ptr noundef readonly captures(none) %0) #3 {
  %2 = getelementptr inbounds nuw i8, ptr %0, i64 16
  %3 = load ptr, ptr %2, align 8, !tbaa !12
  %4 = getelementptr inbounds nuw i8, ptr %3, i64 74
  %5 = load i8, ptr %4, align 2, !tbaa !17
  %cond = icmp eq i8 %5, 1
  %.str..str.1 = select i1 %cond, ptr @.str, ptr @.str.1
  ret ptr %.str..str.1
}